target datalayout = "e-m:e-p270:32:32-p271:32:32-p272:64:64-i64:64-i128:128-f80:128-n8:16:32:64-S128"
target triple = "x86_64-pc-linux-gnu"

%struct.pg_wchar_tbl = type { ptr, ptr, ptr, ptr, ptr, ptr, i32 }

@pg_wchar_table = external constant [0 x %struct.pg_wchar_tbl], align 8

; Function Attrs: nounwind uwtable
define dso_local i32 @pg_verify_mbstr_len(i32 noundef %0, ptr noundef %1, i32 noundef %2, i1 noundef zeroext %3) #1 {
  %5 = alloca i32, align 4
  %6 = alloca i32, align 4
  %7 = alloca ptr, align 8
  %8 = alloca i32, align 4
  %9 = alloca i8, align 1
  %10 = alloca ptr, align 8
  %11 = alloca i32, align 4
  %12 = alloca ptr, align 8
  %13 = alloca i32, align 4
  %14 = alloca i32, align 4
  store i32 %0, ptr %6, align 4
  store ptr %1, ptr %7, align 8
  store i32 %2, ptr %8, align 4
  %15 = zext i1 %3 to i8
  store i8 %15, ptr %9, align 1
  call void @llvm.lifetime.start.p0(i64 8, ptr %10) #9
  call void @llvm.lifetime.start.p0(i64 4, ptr %11) #9
  %16 = load i32, ptr %6, align 4
  %17 = call i32 @pg_encoding_max_length(i32 noundef %16)
  %18 = icmp sle i32 %17, 1
  br i1 %18, label %19, label %36

19:                                               ; preds = %4
  call void @llvm.lifetime.start.p0(i64 8, ptr %12) #9
  %20 = load ptr, ptr %7, align 8
  %21 = load i32, ptr %8, align 4
  %22 = sext i32 %21 to i64
  %23 = call ptr @memchr(ptr noundef %20, i32 noundef 0, i64 noundef %22) #11
  store ptr %23, ptr %12, align 8
  %24 = load ptr, ptr %12, align 8
  %25 = icmp eq ptr %24, null
  br i1 %25, label %26, label %28

26:                                               ; preds = %19
  %27 = load i32, ptr %8, align 4
  store i32 %27, ptr %5, align 4
  store i32 1, ptr %13, align 4
  br label %35

28:                                               ; preds = %19
  %29 = load i8, ptr %9, align 1, !range !4, !noundef !5
  %30 = trunc i8 %29 to i1
  br i1 %30, label %31, label %32

31:                                               ; preds = %28
  store i32 -1, ptr %5, align 4
  store i32 1, ptr %13, align 4
  br label %35

32:                                               ; preds = %28
  %33 = load i32, ptr %6, align 4
  %34 = load ptr, ptr %12, align 8
  call void @report_invalid_encoding(i32 noundef %33, ptr noundef %34, i32 noundef 1) #12
  unreachable

35:                                               ; preds = %31, %26
  call void @llvm.lifetime.end.p0(i64 8, ptr %12) #9
  br label %101

36:                                               ; preds = %4
  %37 = load i32, ptr %6, align 4
  %38 = sext i32 %37 to i64
  %39 = getelementptr inbounds [0 x %struct.pg_wchar_tbl], ptr @pg_wchar_table, i64 0, i64 %38
  %40 = getelementptr inbounds nuw %struct.pg_wchar_tbl, ptr %39, i32 0, i32 4
  %41 = load ptr, ptr %40, align 8
  store ptr %41, ptr %10, align 8
  store i32 0, ptr %11, align 4
  br label %42

42:                                               ; preds = %98, %96, %36
  %43 = load i32, ptr %8, align 4
  %44 = icmp sgt i32 %43, 0
  br i1 %44, label %45, label %99

45:                                               ; preds = %42
  call void @llvm.lifetime.start.p0(i64 4, ptr %14) #9
  %46 = load ptr, ptr %7, align 8
  %47 = load i8, ptr %46, align 1
  %48 = zext i8 %47 to i32
  %49 = and i32 %48, 128
  %50 = icmp ne i32 %49, 0
  br i1 %50, label %71, label %51

51:                                               ; preds = %45
  %52 = load ptr, ptr %7, align 8
  %53 = load i8, ptr %52, align 1
  %54 = sext i8 %53 to i32
  %55 = icmp ne i32 %54, 0
  br i1 %55, label %56, label %63

56:                                               ; preds = %51
  %57 = load i32, ptr %11, align 4
  %58 = add i32 %57, 1
  store i32 %58, ptr %11, align 4
  %59 = load ptr, ptr %7, align 8
  %60 = getelementptr inbounds nuw i8, ptr %59, i32 1
  store ptr %60, ptr %7, align 8
  %61 = load i32, ptr %8, align 4
  %62 = add i32 %61, -1
  store i32 %62, ptr %8, align 4
  store i32 2, ptr %13, align 4
  br label %96, !llvm.loop !9

63:                                               ; preds = %51
  %64 = load i8, ptr %9, align 1, !range !4, !noundef !5
  %65 = trunc i8 %64 to i1
  br i1 %65, label %66, label %67

66:                                               ; preds = %63
  store i32 -1, ptr %5, align 4
  store i32 1, ptr %13, align 4
  br label %96

67:                                               ; preds = %63
  %68 = load i32, ptr %6, align 4
  %69 = load ptr, ptr %7, align 8
  %70 = load i32, ptr %8, align 4
  call void @report_invalid_encoding(i32 noundef %68, ptr noundef %69, i32 noundef %70) #12
  unreachable

71:                                               ; preds = %45
  %72 = load ptr, ptr %10, align 8
  %73 = load ptr, ptr %7, align 8
  %74 = load i32, ptr %8, align 4
  %75 = call i32 %72(ptr noundef %73, i32 noundef %74)
  store i32 %75, ptr %14, align 4
  %76 = load i32, ptr %14, align 4
  %77 = icmp slt i32 %76, 0
  br i1 %77, label %78, label %86

78:                                               ; preds = %71
  %79 = load i8, ptr %9, align 1, !range !4, !noundef !5
  %80 = trunc i8 %79 to i1
  br i1 %80, label %81, label %82

81:                                               ; preds = %78
  store i32 -1, ptr %5, align 4
  store i32 1, ptr %13, align 4
  br label %96

82:                                               ; preds = %78
  %83 = load i32, ptr %6, align 4
  %84 = load ptr, ptr %7, align 8
  %85 = load i32, ptr %8, align 4
  call void @report_invalid_encoding(i32 noundef %83, ptr noundef %84, i32 noundef %85) #12
  unreachable

86:                                               ; preds = %71
  %87 = load i32, ptr %14, align 4
  %88 = load ptr, ptr %7, align 8
  %89 = sext i32 %87 to i64
  %90 = getelementptr inbounds i8, ptr %88, i64 %89
  store ptr %90, ptr %7, align 8
  %91 = load i32, ptr %14, align 4
  %92 = load i32, ptr %8, align 4
  %93 = sub i32 %92, %91
  store i32 %93, ptr %8, align 4
  %94 = load i32, ptr %11, align 4
  %95 = add i32 %94, 1
  store i32 %95, ptr %11, align 4
  store i32 0, ptr %13, align 4
  br label %96

96:                                               ; preds = %86, %81, %66, %56
  call void @llvm.lifetime.end.p0(i64 4, ptr %14) #9
  %97 = load i32, ptr %13, align 4
  switch i32 %97, label %101 [
    i32 0, label %98
    i32 2, label %42
  ]

98:                                               ; preds = %96
  br label %42, !llvm.loop !9

99:                                               ; preds = %42
  %100 = load i32, ptr %11, align 4
  store i32 %100, ptr %5, align 4
  store i32 1, ptr %13, align 4
  br label %101

101:                                              ; preds = %99, %96, %35
  call void @llvm.lifetime.end.p0(i64 4, ptr %11) #9
  call void @llvm.lifetime.end.p0(i64 8, ptr %10) #9
  %102 = load i32, ptr %5, align 4
  ret i32 %102
}