; Function Attrs: nounwind uwtable
define dso_local i32 @pg_verify_mbstr_len(i32 noundef %0, ptr noundef %1, i32 noundef %2, i1 noundef zeroext %3) local_unnamed_addr #0 {
  %5 = tail call i32 @pg_encoding_max_length(i32 noundef %0) #13
  %6 = icmp slt i32 %5, 2
  br i1 %6, label %7, label %12

7:                                                ; preds = %4
  %8 = sext i32 %2 to i64
  %9 = tail call ptr @memchr(ptr noundef %1, i32 noundef 0, i64 noundef %8) #16
  %10 = icmp eq ptr %9, null
  %brmerge = or i1 %3, %10
  %.mux = select i1 %10, i32 %2, i32 -1
  br i1 %brmerge, label %.thread, label %11

11:                                               ; preds = %7
  tail call void @report_invalid_encoding(i32 noundef %0, ptr noundef nonnull %9, i32 noundef 1) #15
  unreachable

12:                                               ; preds = %4
  %13 = sext i32 %0 to i64
  %14 = getelementptr inbounds [0 x %struct.pg_wchar_tbl], ptr @pg_wchar_table, i64 0, i64 %13, i32 4
  %15 = load ptr, ptr %14, align 8
  %16 = icmp sgt i32 %2, 0
  br i1 %16, label %.lr.ph, label %.thread

.lr.ph:                                           ; preds = %12, %33
  %.03556 = phi ptr [ %.136, %33 ], [ %1, %12 ]
  %.03755 = phi i32 [ %.138, %33 ], [ 0, %12 ]
  %.03954 = phi i32 [ %.140, %33 ], [ %2, %12 ]
  %17 = load i8, ptr %.03556, align 1
  %.not = icmp sgt i8 %17, -1
  br i1 %.not, label %18, label %24

18:                                               ; preds = %.lr.ph
  %.not43 = icmp eq i8 %17, 0
  br i1 %.not43, label %22, label %19

19:                                               ; preds = %18
  %20 = getelementptr inbounds nuw i8, ptr %.03556, i64 1
  %21 = add nsw i32 %.03954, -1
  br label %33, !llvm.loop !6

22:                                               ; preds = %18
  br i1 %3, label %.thread, label %23

23:                                               ; preds = %22
  tail call void @report_invalid_encoding(i32 noundef %0, ptr noundef nonnull %.03556, i32 noundef %.03954) #15
  unreachable

24:                                               ; preds = %.lr.ph
  %25 = tail call i32 %15(ptr noundef nonnull %.03556, i32 noundef %.03954) #13
  %26 = icmp slt i32 %25, 0
  br i1 %26, label %27, label %29

27:                                               ; preds = %24
  br i1 %3, label %.thread, label %28

28:                                               ; preds = %27
  tail call void @report_invalid_encoding(i32 noundef %0, ptr noundef nonnull %.03556, i32 noundef %.03954) #15
  unreachable

29:                                               ; preds = %24
  %30 = zext nneg i32 %25 to i64
  %31 = getelementptr inbounds nuw i8, ptr %.03556, i64 %30
  %32 = sub nsw i32 %.03954, %25
  br label %33

33:                                               ; preds = %29, %19
  %.140 = phi i32 [ %32, %29 ], [ %21, %19 ]
  %.136 = phi ptr [ %31, %29 ], [ %20, %19 ]
  %.138 = add i32 %.03755, 1
  %34 = icmp sgt i32 %.140, 0
  br i1 %34, label %.lr.ph, label %.thread

.thread:                                          ; preds = %33, %12, %27, %22, %7
  %.1 = phi i32 [ %.mux, %7 ], [ -1, %22 ], [ -1, %27 ], [ 0, %12 ], [ %.138, %33 ]
  ret i32 %.1
}